target datalayout = "e-m:e-p270:32:32-p271:32:32-p272:64:64-i64:64-i128:128-f80:128-n8:16:32:64-S128"
target triple = "x86_64-pc-linux-gnu"

%"class.std::unique_ptr" = type { %"struct.std::__uniq_ptr_data" }
%"struct.std::__uniq_ptr_data" = type { %"class.std::__uniq_ptr_impl" }
%"class.std::__uniq_ptr_impl" = type { %"class.std::tuple" }
%"class.std::tuple" = type { %"struct.std::_Tuple_impl" }
%"struct.std::_Tuple_impl" = type { %"struct.std::_Head_base.1" }
%"struct.std::_Head_base.1" = type { ptr }

@stderr = external global ptr, align 8
@.str.21 = private unnamed_addr constant [31 x i8] c"%d-prime key failed to parse.\0A\00", align 1
@.str.22 = private unnamed_addr constant [40 x i8] c"RSA_check_key failed for %d-prime key.\0A\00", align 1
@.str.23 = private unnamed_addr constant [12 x i8] c"hello world\00", align 1
@.str.24 = private unnamed_addr constant [33 x i8] c"%d-prime key failed to decrypt.\0A\00", align 1

; Function Attrs: mustprogress nounwind uwtable
define linkonce_odr hidden noundef nonnull align 8 dereferenceable(8) ptr @_ZNSt10_Head_baseILm0EP6rsa_stLb0EE7_M_headERS2_(ptr noundef nonnull align 8 dereferenceable(8) %0) #4 comdat align 2 {
  %2 = alloca ptr, align 8
  store ptr %0, ptr %2, align 8, !tbaa !54
  %3 = load ptr, ptr %2, align 8, !tbaa !54
  %4 = getelementptr inbounds nuw %"struct.std::_Head_base.1", ptr %3, i32 0, i32 0
  ret ptr %4
}

; Function Attrs: mustprogress nounwind uwtable
define linkonce_odr hidden noundef nonnull align 8 dereferenceable(8) ptr @_ZNSt11_Tuple_implILm0EJP6rsa_st14OpenSSLDeleterIS0_XadL_Z8RSA_freeEEEEE7_M_headERS4_(ptr noundef nonnull align 8 dereferenceable(8) %0) #4 comdat align 2 {
  %2 = alloca ptr, align 8
  store ptr %0, ptr %2, align 8, !tbaa !50
  %3 = load ptr, ptr %2, align 8, !tbaa !50
  %4 = call noundef nonnull align 8 dereferenceable(8) ptr @_ZNSt10_Head_baseILm0EP6rsa_stLb0EE7_M_headERS2_(ptr noundef nonnull align 8 dereferenceable(8) %3) #11
  ret ptr %4
}

; Function Attrs: mustprogress nounwind uwtable
define linkonce_odr hidden void @_ZNSt10_Head_baseILm1E14OpenSSLDeleterI6rsa_stXadL_Z8RSA_freeEEELb1EEC2Ev(ptr noundef nonnull align 1 dereferenceable(1) %0) unnamed_addr #4 comdat align 2 {
  %2 = alloca ptr, align 8
  store ptr %0, ptr %2, align 8, !tbaa !58
  ret void
}

; Function Attrs: mustprogress nounwind uwtable
define linkonce_odr hidden noundef nonnull align 8 dereferenceable(8) ptr @_ZNSt10_Head_baseILm0EP6rsa_stLb0EE7_M_headERKS2_(ptr noundef nonnull align 8 dereferenceable(8) %0) #4 comdat align 2 {
  %2 = alloca ptr, align 8
  store ptr %0, ptr %2, align 8, !tbaa !54
  %3 = load ptr, ptr %2, align 8, !tbaa !54
  %4 = getelementptr inbounds nuw %"struct.std::_Head_base.1", ptr %3, i32 0, i32 0
  ret ptr %4
}

; Function Attrs: mustprogress nounwind uwtable
define linkonce_odr hidden noundef nonnull align 8 dereferenceable(8) ptr @_ZSt12__get_helperILm0EP6rsa_stJ14OpenSSLDeleterIS0_XadL_Z8RSA_freeEEEEERT0_RSt11_Tuple_implIXT_EJS4_DpT1_EE(ptr noundef nonnull align 8 dereferenceable(8) %0) #4 comdat {
  %2 = alloca ptr, align 8
  store ptr %0, ptr %2, align 8, !tbaa !50
  %3 = load ptr, ptr %2, align 8, !tbaa !50
  %4 = call noundef nonnull align 8 dereferenceable(8) ptr @_ZNSt11_Tuple_implILm0EJP6rsa_st14OpenSSLDeleterIS0_XadL_Z8RSA_freeEEEEE7_M_headERS4_(ptr noundef nonnull align 8 dereferenceable(8) %3) #11
  ret ptr %4
}

; Function Attrs: mustprogress nounwind uwtable
define linkonce_odr hidden void @_ZNSt10_Head_baseILm0EP6rsa_stLb0EEC2Ev(ptr noundef nonnull align 8 dereferenceable(8) %0) unnamed_addr #4 comdat align 2 {
  %2 = alloca ptr, align 8
  store ptr %0, ptr %2, align 8, !tbaa !54
  %3 = load ptr, ptr %2, align 8
  %4 = getelementptr inbounds nuw %"struct.std::_Head_base.1", ptr %3, i32 0, i32 0
  store ptr null, ptr %4, align 8, !tbaa !56
  ret void
}

; Function Attrs: mustprogress uwtable
define linkonce_odr hidden void @_ZNSt11_Tuple_implILm1EJ14OpenSSLDeleterI6rsa_stXadL_Z8RSA_freeEEEEEC2Ev(ptr noundef nonnull align 1 dereferenceable(1) %0) unnamed_addr #2 comdat align 2 {
  %2 = alloca ptr, align 8
  store ptr %0, ptr %2, align 8, !tbaa !52
  %3 = load ptr, ptr %2, align 8
  call void @_ZNSt10_Head_baseILm1E14OpenSSLDeleterI6rsa_stXadL_Z8RSA_freeEEELb1EEC2Ev(ptr noundef nonnull align 1 dereferenceable(1) %3)
  ret void
}

; Function Attrs: mustprogress nounwind uwtable
define linkonce_odr hidden noundef nonnull align 8 dereferenceable(8) ptr @_ZNSt11_Tuple_implILm0EJP6rsa_st14OpenSSLDeleterIS0_XadL_Z8RSA_freeEEEEE7_M_headERKS4_(ptr noundef nonnull align 8 dereferenceable(8) %0) #4 comdat align 2 {
  %2 = alloca ptr, align 8
  store ptr %0, ptr %2, align 8, !tbaa !50
  %3 = load ptr, ptr %2, align 8, !tbaa !50
  %4 = call noundef nonnull align 8 dereferenceable(8) ptr @_ZNSt10_Head_baseILm0EP6rsa_stLb0EE7_M_headERKS2_(ptr noundef nonnull align 8 dereferenceable(8) %3) #11
  ret ptr %4
}

; Function Attrs: mustprogress nounwind uwtable
define linkonce_odr hidden noundef nonnull align 8 dereferenceable(8) ptr @_ZSt3getILm0EJP6rsa_st14OpenSSLDeleterIS0_XadL_Z8RSA_freeEEEEERNSt13tuple_elementIXT_ESt5tupleIJDpT0_EEE4typeERS8_(ptr noundef nonnull align 8 dereferenceable(8) %0) #4 comdat {
  %2 = alloca ptr, align 8
  store ptr %0, ptr %2, align 8, !tbaa !48
  %3 = load ptr, ptr %2, align 8, !tbaa !48
  %4 = call noundef nonnull align 8 dereferenceable(8) ptr @_ZSt12__get_helperILm0EP6rsa_stJ14OpenSSLDeleterIS0_XadL_Z8RSA_freeEEEEERT0_RSt11_Tuple_implIXT_EJS4_DpT1_EE(ptr noundef nonnull align 8 dereferenceable(8) %3) #11
  ret ptr %4
}

; Function Attrs: mustprogress uwtable
define linkonce_odr hidden void @_ZNSt11_Tuple_implILm0EJP6rsa_st14OpenSSLDeleterIS0_XadL_Z8RSA_freeEEEEEC2Ev(ptr noundef nonnull align 8 dereferenceable(8) %0) unnamed_addr #2 comdat align 2 {
  %2 = alloca ptr, align 8
  store ptr %0, ptr %2, align 8, !tbaa !50
  %3 = load ptr, ptr %2, align 8
  call void @_ZNSt11_Tuple_implILm1EJ14OpenSSLDeleterI6rsa_stXadL_Z8RSA_freeEEEEEC2Ev(ptr noundef nonnull align 1 dereferenceable(1) %3)
  call void @_ZNSt10_Head_baseILm0EP6rsa_stLb0EEC2Ev(ptr noundef nonnull align 8 dereferenceable(8) %3)
  ret void
}

; Function Attrs: mustprogress nounwind uwtable
define linkonce_odr hidden noundef nonnull align 8 dereferenceable(8) ptr @_ZSt12__get_helperILm0EP6rsa_stJ14OpenSSLDeleterIS0_XadL_Z8RSA_freeEEEEERKT0_RKSt11_Tuple_implIXT_EJS4_DpT1_EE(ptr noundef nonnull align 8 dereferenceable(8) %0) #4 comdat {
  %2 = alloca ptr, align 8
  store ptr %0, ptr %2, align 8, !tbaa !50
  %3 = load ptr, ptr %2, align 8, !tbaa !50
  %4 = call noundef nonnull align 8 dereferenceable(8) ptr @_ZNSt11_Tuple_implILm0EJP6rsa_st14OpenSSLDeleterIS0_XadL_Z8RSA_freeEEEEE7_M_headERKS4_(ptr noundef nonnull align 8 dereferenceable(8) %3) #11
  ret ptr %4
}

; Function Attrs: mustprogress nounwind uwtable
define linkonce_odr hidden noundef nonnull align 8 dereferenceable(8) ptr @_ZNSt15__uniq_ptr_implI6rsa_st14OpenSSLDeleterIS0_XadL_Z8RSA_freeEEEE6_M_ptrEv(ptr noundef nonnull align 8 dereferenceable(8) %0) #4 comdat align 2 {
  %2 = alloca ptr, align 8
  store ptr %0, ptr %2, align 8, !tbaa !46
  %3 = load ptr, ptr %2, align 8
  %4 = getelementptr inbounds nuw %"class.std::__uniq_ptr_impl", ptr %3, i32 0, i32 0
  %5 = call noundef nonnull align 8 dereferenceable(8) ptr @_ZSt3getILm0EJP6rsa_st14OpenSSLDeleterIS0_XadL_Z8RSA_freeEEEEERNSt13tuple_elementIXT_ESt5tupleIJDpT0_EEE4typeERS8_(ptr noundef nonnull align 8 dereferenceable(8) %4) #11
  ret ptr %5
}

; Function Attrs: mustprogress nounwind uwtable
define linkonce_odr hidden void @_ZNSt5tupleIJP6rsa_st14OpenSSLDeleterIS0_XadL_Z8RSA_freeEEEEEC2ILb1ETnNSt9enable_ifIXclsr17_TupleConstraintsIXT_ES1_S3_EE37__is_implicitly_default_constructibleEEbE4typeELb1EEEv(ptr noundef nonnull align 8 dereferenceable(8) %0) unnamed_addr #4 comdat align 2 personality ptr @__gxx_personality_v0 {
  %2 = alloca ptr, align 8
  store ptr %0, ptr %2, align 8, !tbaa !48
  %3 = load ptr, ptr %2, align 8
  invoke void @_ZNSt11_Tuple_implILm0EJP6rsa_st14OpenSSLDeleterIS0_XadL_Z8RSA_freeEEEEEC2Ev(ptr noundef nonnull align 8 dereferenceable(8) %3)
          to label %4 unwind label %5

4:                                                ; preds = %1
  ret void

5:                                                ; preds = %1
  %6 = landingpad { ptr, i32 }
          catch ptr null
  %7 = extractvalue { ptr, i32 } %6, 0
  call void @__clang_call_terminate(ptr %7) #13
  unreachable
}

; Function Attrs: mustprogress nounwind uwtable
define linkonce_odr hidden noundef nonnull align 8 dereferenceable(8) ptr @_ZSt3getILm0EJP6rsa_st14OpenSSLDeleterIS0_XadL_Z8RSA_freeEEEEERKNSt13tuple_elementIXT_ESt5tupleIJDpT0_EEE4typeERKS8_(ptr noundef nonnull align 8 dereferenceable(8) %0) #4 comdat {
  %2 = alloca ptr, align 8
  store ptr %0, ptr %2, align 8, !tbaa !48
  %3 = load ptr, ptr %2, align 8, !tbaa !48
  %4 = call noundef nonnull align 8 dereferenceable(8) ptr @_ZSt12__get_helperILm0EP6rsa_stJ14OpenSSLDeleterIS0_XadL_Z8RSA_freeEEEEERKT0_RKSt11_Tuple_implIXT_EJS4_DpT1_EE(ptr noundef nonnull align 8 dereferenceable(8) %3) #11
  ret ptr %4
}

; Function Attrs: mustprogress nounwind uwtable
define linkonce_odr hidden void @_ZNSt15__uniq_ptr_implI6rsa_st14OpenSSLDeleterIS0_XadL_Z8RSA_freeEEEEC2EPS0_(ptr noundef nonnull align 8 dereferenceable(8) %0, ptr noundef %1) unnamed_addr #4 comdat align 2 {
  %3 = alloca ptr, align 8
  %4 = alloca ptr, align 8
  store ptr %0, ptr %3, align 8, !tbaa !46
  store ptr %1, ptr %4, align 8, !tbaa !40
  %5 = load ptr, ptr %3, align 8
  %6 = getelementptr inbounds nuw %"class.std::__uniq_ptr_impl", ptr %5, i32 0, i32 0
  call void @_ZNSt5tupleIJP6rsa_st14OpenSSLDeleterIS0_XadL_Z8RSA_freeEEEEEC2ILb1ETnNSt9enable_ifIXclsr17_TupleConstraintsIXT_ES1_S3_EE37__is_implicitly_default_constructibleEEbE4typeELb1EEEv(ptr noundef nonnull align 8 dereferenceable(8) %6) #11
  %7 = load ptr, ptr %4, align 8, !tbaa !40
  %8 = call noundef nonnull align 8 dereferenceable(8) ptr @_ZNSt15__uniq_ptr_implI6rsa_st14OpenSSLDeleterIS0_XadL_Z8RSA_freeEEEE6_M_ptrEv(ptr noundef nonnull align 8 dereferenceable(8) %5) #11
  store ptr %7, ptr %8, align 8, !tbaa !40
  ret void
}

; Function Attrs: mustprogress nounwind uwtable
define linkonce_odr hidden noundef ptr @_ZNKSt15__uniq_ptr_implI6rsa_st14OpenSSLDeleterIS0_XadL_Z8RSA_freeEEEE6_M_ptrEv(ptr noundef nonnull align 8 dereferenceable(8) %0) #4 comdat align 2 {
  %2 = alloca ptr, align 8
  store ptr %0, ptr %2, align 8, !tbaa !46
  %3 = load ptr, ptr %2, align 8
  %4 = getelementptr inbounds nuw %"class.std::__uniq_ptr_impl", ptr %3, i32 0, i32 0
  %5 = call noundef nonnull align 8 dereferenceable(8) ptr @_ZSt3getILm0EJP6rsa_st14OpenSSLDeleterIS0_XadL_Z8RSA_freeEEEEERKNSt13tuple_elementIXT_ESt5tupleIJDpT0_EEE4typeERKS8_(ptr noundef nonnull align 8 dereferenceable(8) %4) #11
  %6 = load ptr, ptr %5, align 8, !tbaa !40
  ret ptr %6
}

; Function Attrs: inlinehint mustprogress uwtable
define linkonce_odr hidden void @_ZNSt15__uniq_ptr_dataI6rsa_st14OpenSSLDeleterIS0_XadL_Z8RSA_freeEEELb1ELb1EECI2St15__uniq_ptr_implIS0_S2_EEPS0_(ptr noundef nonnull align 8 dereferenceable(8) %0, ptr noundef %1) unnamed_addr #8 comdat align 2 {
  %3 = alloca ptr, align 8
  %4 = alloca ptr, align 8
  store ptr %0, ptr %3, align 8, !tbaa !44
  store ptr %1, ptr %4, align 8, !tbaa !40
  %5 = load ptr, ptr %3, align 8
  %6 = load ptr, ptr %4, align 8, !tbaa !40
  call void @_ZNSt15__uniq_ptr_implI6rsa_st14OpenSSLDeleterIS0_XadL_Z8RSA_freeEEEEC2EPS0_(ptr noundef nonnull align 8 dereferenceable(8) %5, ptr noundef %6)
  ret void
}

; Function Attrs: mustprogress nounwind uwtable
define linkonce_odr hidden noundef ptr @_ZNKSt10unique_ptrI6rsa_st14OpenSSLDeleterIS0_XadL_Z8RSA_freeEEEE3getEv(ptr noundef nonnull align 8 dereferenceable(8) %0) #4 comdat align 2 {
  %2 = alloca ptr, align 8
  store ptr %0, ptr %2, align 8, !tbaa !38
  %3 = load ptr, ptr %2, align 8
  %4 = getelementptr inbounds nuw %"class.std::unique_ptr", ptr %3, i32 0, i32 0
  %5 = call noundef ptr @_ZNKSt15__uniq_ptr_implI6rsa_st14OpenSSLDeleterIS0_XadL_Z8RSA_freeEEEE6_M_ptrEv(ptr noundef nonnull align 8 dereferenceable(8) %4) #11
  ret ptr %5
}

; Function Attrs: mustprogress nounwind uwtable
define linkonce_odr hidden noundef zeroext i1 @_ZNKSt10unique_ptrI6rsa_st14OpenSSLDeleterIS0_XadL_Z8RSA_freeEEEEcvbEv(ptr noundef nonnull align 8 dereferenceable(8) %0) #4 comdat align 2 {
  %2 = alloca ptr, align 8
  store ptr %0, ptr %2, align 8, !tbaa !38
  %3 = load ptr, ptr %2, align 8
  %4 = call noundef ptr @_ZNKSt10unique_ptrI6rsa_st14OpenSSLDeleterIS0_XadL_Z8RSA_freeEEEE3getEv(ptr noundef nonnull align 8 dereferenceable(8) %3) #11
  %5 = icmp eq ptr %4, null
  %6 = select i1 %5, i1 false, i1 true
  ret i1 %6
}

; Function Attrs: mustprogress nounwind uwtable
define linkonce_odr hidden void @_ZNSt10unique_ptrI6rsa_st14OpenSSLDeleterIS0_XadL_Z8RSA_freeEEEEC2IS2_vEEPS0_(ptr noundef nonnull align 8 dereferenceable(8) %0, ptr noundef %1) unnamed_addr #4 comdat align 2 personality ptr @__gxx_personality_v0 {
  %3 = alloca ptr, align 8
  %4 = alloca ptr, align 8
  store ptr %0, ptr %3, align 8, !tbaa !38
  store ptr %1, ptr %4, align 8, !tbaa !40
  %5 = load ptr, ptr %3, align 8
  %6 = getelementptr inbounds nuw %"class.std::unique_ptr", ptr %5, i32 0, i32 0
  %7 = load ptr, ptr %4, align 8, !tbaa !40
  invoke void @_ZNSt15__uniq_ptr_dataI6rsa_st14OpenSSLDeleterIS0_XadL_Z8RSA_freeEEELb1ELb1EECI2St15__uniq_ptr_implIS0_S2_EEPS0_(ptr noundef nonnull align 8 dereferenceable(8) %6, ptr noundef %7)
          to label %8 unwind label %9

8:                                                ; preds = %2
  ret void

9:                                                ; preds = %2
  %10 = landingpad { ptr, i32 }
          catch ptr null
  %11 = extractvalue { ptr, i32 } %10, 0
  call void @__clang_call_terminate(ptr %11) #13
  unreachable
}

; Function Attrs: mustprogress uwtable
define internal noundef zeroext i1 @_ZL17TestMultiPrimeKeyiPKhmS0_m(i32 noundef %0, ptr noundef %1, i64 noundef %2, ptr noundef %3, i64 noundef %4) #2 personality ptr @__gxx_personality_v0 {
  %6 = alloca i1, align 1
  %7 = alloca i32, align 4
  %8 = alloca ptr, align 8
  %9 = alloca i64, align 8
  %10 = alloca ptr, align 8
  %11 = alloca i64, align 8
  %12 = alloca %"class.std::unique_ptr", align 8
  %13 = alloca ptr, align 8
  %14 = alloca i32, align 4
  %15 = alloca i32, align 4
  %16 = alloca [256 x i8], align 16
  %17 = alloca i64, align 8
  store i32 %0, ptr %7, align 4, !tbaa !6
  store ptr %1, ptr %8, align 8, !tbaa !13
  store i64 %2, ptr %9, align 8, !tbaa !15
  store ptr %3, ptr %10, align 8, !tbaa !13
  store i64 %4, ptr %11, align 8, !tbaa !15
  call void @llvm.lifetime.start.p0(i64 8, ptr %12) #11
  %18 = load i64, ptr %9, align 8, !tbaa !15
  %19 = call ptr @d2i_RSAPrivateKey(ptr noundef null, ptr noundef %8, i64 noundef %18)
  call void @_ZNSt10unique_ptrI6rsa_st14OpenSSLDeleterIS0_XadL_Z8RSA_freeEEEEC2IS2_vEEPS0_(ptr noundef nonnull align 8 dereferenceable(8) %12, ptr noundef %19) #11
  %20 = call noundef zeroext i1 @_ZNKSt10unique_ptrI6rsa_st14OpenSSLDeleterIS0_XadL_Z8RSA_freeEEEEcvbEv(ptr noundef nonnull align 8 dereferenceable(8) %12) #11
  br i1 %20, label %31, label %21

21:                                               ; preds = %5
  %22 = load ptr, ptr @stderr, align 8, !tbaa !17
  %23 = load i32, ptr %7, align 4, !tbaa !6
  %24 = call i32 (ptr, ptr, ...) @fprintf(ptr noundef %22, ptr noundef @.str.21, i32 noundef %23) #11
  %25 = load ptr, ptr @stderr, align 8, !tbaa !17
  invoke void @ERR_print_errors_fp(ptr noundef %25)
          to label %26 unwind label %27

26:                                               ; preds = %21
  store i1 false, ptr %6, align 1
  store i32 1, ptr %15, align 4
  br label %69

27:                                               ; preds = %36, %31, %21
  %28 = landingpad { ptr, i32 }
          cleanup
  %29 = extractvalue { ptr, i32 } %28, 0
  store ptr %29, ptr %13, align 8
  %30 = extractvalue { ptr, i32 } %28, 1
  store i32 %30, ptr %14, align 4
  br label %71

31:                                               ; preds = %5
  %32 = call noundef ptr @_ZNKSt10unique_ptrI6rsa_st14OpenSSLDeleterIS0_XadL_Z8RSA_freeEEEE3getEv(ptr noundef nonnull align 8 dereferenceable(8) %12) #11
  %33 = invoke i32 @RSA_check_key(ptr noundef %32)
          to label %34 unwind label %27

34:                                               ; preds = %31
  %35 = icmp ne i32 %33, 0
  br i1 %35, label %42, label %36

36:                                               ; preds = %34
  %37 = load ptr, ptr @stderr, align 8, !tbaa !17
  %38 = load i32, ptr %7, align 4, !tbaa !6
  %39 = call i32 (ptr, ptr, ...) @fprintf(ptr noundef %37, ptr noundef @.str.22, i32 noundef %38) #11
  %40 = load ptr, ptr @stderr, align 8, !tbaa !17
  invoke void @ERR_print_errors_fp(ptr noundef %40)
          to label %41 unwind label %27

41:                                               ; preds = %36
  store i1 false, ptr %6, align 1
  store i32 1, ptr %15, align 4
  br label %69

42:                                               ; preds = %34
  call void @llvm.lifetime.start.p0(i64 256, ptr %16) #11
  call void @llvm.lifetime.start.p0(i64 8, ptr %17) #11
  %43 = call noundef ptr @_ZNKSt10unique_ptrI6rsa_st14OpenSSLDeleterIS0_XadL_Z8RSA_freeEEEE3getEv(ptr noundef nonnull align 8 dereferenceable(8) %12) #11
  %44 = getelementptr inbounds [256 x i8], ptr %16, i64 0, i64 0
  %45 = load ptr, ptr %10, align 8, !tbaa !13
  %46 = load i64, ptr %11, align 8, !tbaa !15
  %47 = invoke i32 @RSA_decrypt(ptr noundef %43, ptr noundef %17, ptr noundef %44, i64 noundef 256, ptr noundef %45, i64 noundef %46, i32 noundef 1)
          to label %48 unwind label %63

48:                                               ; preds = %42
  %49 = icmp ne i32 %47, 0
  br i1 %49, label %50, label %57

50:                                               ; preds = %48
  %51 = load i64, ptr %17, align 8, !tbaa !15
  %52 = icmp ne i64 %51, 11
  br i1 %52, label %57, label %53

53:                                               ; preds = %50
  %54 = getelementptr inbounds [256 x i8], ptr %16, i64 0, i64 0
  %55 = call i32 @memcmp(ptr noundef %54, ptr noundef @.str.23, i64 noundef 11) #12
  %56 = icmp ne i32 %55, 0
  br i1 %56, label %57, label %67

57:                                               ; preds = %53, %50, %48
  %58 = load ptr, ptr @stderr, align 8, !tbaa !17
  %59 = load i32, ptr %7, align 4, !tbaa !6
  %60 = call i32 (ptr, ptr, ...) @fprintf(ptr noundef %58, ptr noundef @.str.24, i32 noundef %59) #11
  %61 = load ptr, ptr @stderr, align 8, !tbaa !17
  invoke void @ERR_print_errors_fp(ptr noundef %61)
          to label %62 unwind label %63

62:                                               ; preds = %57
  store i1 false, ptr %6, align 1
  store i32 1, ptr %15, align 4
  br label %68

63:                                               ; preds = %57, %42
  %64 = landingpad { ptr, i32 }
          cleanup
  %65 = extractvalue { ptr, i32 } %64, 0
  store ptr %65, ptr %13, align 8
  %66 = extractvalue { ptr, i32 } %64, 1
  store i32 %66, ptr %14, align 4
  call void @llvm.lifetime.end.p0(i64 8, ptr %17) #11
  call void @llvm.lifetime.end.p0(i64 256, ptr %16) #11
  br label %71

67:                                               ; preds = %53
  store i1 true, ptr %6, align 1
  store i32 1, ptr %15, align 4
  br label %68

68:                                               ; preds = %67, %62
  call void @llvm.lifetime.end.p0(i64 8, ptr %17) #11
  call void @llvm.lifetime.end.p0(i64 256, ptr %16) #11
  br label %69

69:                                               ; preds = %68, %41, %26
  call void @_ZNSt10unique_ptrI6rsa_st14OpenSSLDeleterIS0_XadL_Z8RSA_freeEEEED2Ev(ptr noundef nonnull align 8 dereferenceable(8) %12) #11
  call void @llvm.lifetime.end.p0(i64 8, ptr %12) #11
  %70 = load i1, ptr %6, align 1
  ret i1 %70

71:                                               ; preds = %63, %27
  call void @_ZNSt10unique_ptrI6rsa_st14OpenSSLDeleterIS0_XadL_Z8RSA_freeEEEED2Ev(ptr noundef nonnull align 8 dereferenceable(8) %12) #11
  call void @llvm.lifetime.end.p0(i64 8, ptr %12) #11
  br label %72

72:                                               ; preds = %71
  %73 = load ptr, ptr %13, align 8
  %74 = load i32, ptr %14, align 4
  %75 = insertvalue { ptr, i32 } poison, ptr %73, 0
  %76 = insertvalue { ptr, i32 } %75, i32 %74, 1
  resume { ptr, i32 } %76
}