; Function Attrs: mustprogress norecurse uwtable
define internal fastcc noundef zeroext i1 @_ZL17TestMultiPrimeKeyiPKhmS0_m(i32 noundef range(i32 2, 7) %0, ptr noundef %1, i64 noundef range(i64 1189, 1317) %2, ptr noundef %3) unnamed_addr #0 personality ptr @__gxx_personality_v0 {
  %5 = alloca ptr, align 8
  %6 = alloca %"class.std::unique_ptr", align 8
  %7 = alloca [256 x i8], align 16
  %8 = alloca i64, align 8
  store ptr %1, ptr %5, align 8, !tbaa !36
  call void @llvm.lifetime.start.p0(i64 8, ptr nonnull %6) #12
  %9 = call ptr @d2i_RSAPrivateKey(ptr noundef null, ptr noundef nonnull %5, i64 noundef %2)
  store ptr %9, ptr %6, align 8, !tbaa !10
  %.not13 = icmp eq ptr %9, null
  br i1 %.not13, label %10, label %16

10:                                               ; preds = %4
  %11 = load ptr, ptr @stderr, align 8, !tbaa !13
  %12 = call i32 (ptr, ptr, ...) @fprintf(ptr noundef %11, ptr noundef nonnull @.str.21, i32 noundef %0) #15
  %13 = load ptr, ptr @stderr, align 8, !tbaa !13
  invoke void @ERR_print_errors_fp(ptr noundef %13)
          to label %_ZNSt10unique_ptrI6rsa_st14OpenSSLDeleterIS0_XadL_Z8RSA_freeEEEED2Ev.exit unwind label %14

14:                                               ; preds = %19, %16, %10
  %15 = landingpad { ptr, i32 }
          cleanup
  br label %41

16:                                               ; preds = %4
  %17 = invoke i32 @RSA_check_key(ptr noundef nonnull %9)
          to label %18 unwind label %14

18:                                               ; preds = %16
  %.not = icmp eq i32 %17, 0
  br i1 %.not, label %19, label %23

19:                                               ; preds = %18
  %20 = load ptr, ptr @stderr, align 8, !tbaa !13
  %21 = call i32 (ptr, ptr, ...) @fprintf(ptr noundef %20, ptr noundef nonnull @.str.22, i32 noundef %0) #15
  %22 = load ptr, ptr @stderr, align 8, !tbaa !13
  invoke void @ERR_print_errors_fp(ptr noundef %22)
          to label %37 unwind label %14

23:                                               ; preds = %18
  call void @llvm.lifetime.start.p0(i64 256, ptr nonnull %7) #12
  call void @llvm.lifetime.start.p0(i64 8, ptr nonnull %8) #12
  %24 = invoke i32 @RSA_decrypt(ptr noundef nonnull %9, ptr noundef nonnull %8, ptr noundef nonnull %7, i64 noundef 256, ptr noundef %3, i64 noundef 256, i32 noundef 1)
          to label %25 unwind label %34

25:                                               ; preds = %23
  %26 = icmp eq i32 %24, 0
  %27 = load i64, ptr %8, align 8
  %28 = icmp ne i64 %27, 11
  %or.cond = select i1 %26, i1 true, i1 %28
  br i1 %or.cond, label %30, label %29

29:                                               ; preds = %25
  %bcmp = call i32 @bcmp(ptr noundef nonnull dereferenceable(11) %7, ptr noundef nonnull dereferenceable(11) @.str.23, i64 11)
  %.not11 = icmp eq i32 %bcmp, 0
  br i1 %.not11, label %36, label %30

30:                                               ; preds = %29, %25
  %31 = load ptr, ptr @stderr, align 8, !tbaa !13
  %32 = call i32 (ptr, ptr, ...) @fprintf(ptr noundef %31, ptr noundef nonnull @.str.24, i32 noundef %0) #15
  %33 = load ptr, ptr @stderr, align 8, !tbaa !13
  invoke void @ERR_print_errors_fp(ptr noundef %33)
          to label %36 unwind label %34

34:                                               ; preds = %30, %23
  %35 = landingpad { ptr, i32 }
          cleanup
  call void @llvm.lifetime.end.p0(i64 8, ptr nonnull %8) #12
  call void @llvm.lifetime.end.p0(i64 256, ptr nonnull %7) #12
  br label %41

36:                                               ; preds = %29, %30
  %.1 = phi i1 [ false, %30 ], [ true, %29 ]
  call void @llvm.lifetime.end.p0(i64 8, ptr nonnull %8) #12
  call void @llvm.lifetime.end.p0(i64 256, ptr nonnull %7) #12
  br label %37

37:                                               ; preds = %19, %36
  %.010.ph = phi i1 [ false, %19 ], [ %.1, %36 ]
  invoke void @RSA_free(ptr noundef nonnull %9)
          to label %_ZNSt10unique_ptrI6rsa_st14OpenSSLDeleterIS0_XadL_Z8RSA_freeEEEED2Ev.exit unwind label %38

38:                                               ; preds = %37
  %39 = landingpad { ptr, i32 }
          catch ptr null
  %40 = extractvalue { ptr, i32 } %39, 0
  call void @__clang_call_terminate(ptr %40) #14
  unreachable

_ZNSt10unique_ptrI6rsa_st14OpenSSLDeleterIS0_XadL_Z8RSA_freeEEEED2Ev.exit: ; preds = %10, %37
  %.01016 = phi i1 [ %.010.ph, %37 ], [ false, %10 ]
  call void @llvm.lifetime.end.p0(i64 8, ptr nonnull %6) #12
  ret i1 %.01016

41:                                               ; preds = %34, %14
  %.pn = phi { ptr, i32 } [ %35, %34 ], [ %15, %14 ]
  call void @_ZNSt10unique_ptrI6rsa_st14OpenSSLDeleterIS0_XadL_Z8RSA_freeEEEED2Ev(ptr noundef nonnull align 8 dereferenceable(8) %6) #12
  call void @llvm.lifetime.end.p0(i64 8, ptr nonnull %6) #12
  resume { ptr, i32 } %.pn
}